target datalayout = "e-m:e-p270:32:32-p271:32:32-p272:64:64-i64:64-i128:128-f80:128-n8:16:32:64-S128"
target triple = "x86_64-pc-linux-gnu"

%class.Register = type { i32 }
%class.XMMRegister = type { i32 }
%class.Address = type { %class.Register, %class.Register, %class.XMMRegister, i32, i32, i8, [3 x i8], %class.RelocationHolder }
%class.RelocationHolder = type { [40 x i8] }
%class.Relocation = type <{ ptr, ptr, i32, [4 x i8] }>

@.str = private unnamed_addr constant [42 x i8] c"src/hotspot/cpu/x86/templateTable_x86.cpp\00", align 1
@_ZN13TemplateTable5_masmE = external global ptr, align 8
@_ZL3rbx = internal constant %class.Register { i32 3 }, align 4
@_ZL7rlocals = internal constant %class.Register { i32 14 }, align 4
@_ZL6xnoreg = internal constant %class.XMMRegister { i32 -1 }, align 4
@_ZTV10Relocation = external unnamed_addr constant { [11 x ptr] }, align 8
@PrintInterpreter = external global i8, align 1

; Function Attrs: mustprogress nounwind uwtable
define linkonce_odr hidden void @_ZN10RelocationC2EN9relocInfo9relocTypeE(ptr noundef nonnull align 8 dereferenceable(20) %0, i32 noundef %1) unnamed_addr #1 comdat align 2 {
  %3 = alloca ptr, align 8
  %4 = alloca i32, align 4
  store ptr %0, ptr %3, align 8
  store i32 %1, ptr %4, align 4
  %5 = load ptr, ptr %3, align 8
  store ptr getelementptr inbounds inrange(-16, 72) ({ [11 x ptr] }, ptr @_ZTV10Relocation, i32 0, i32 0, i32 2), ptr %5, align 8
  %6 = getelementptr inbounds %class.Relocation, ptr %5, i32 0, i32 1
  store ptr null, ptr %6, align 8
  %7 = getelementptr inbounds %class.Relocation, ptr %5, i32 0, i32 2
  %8 = load i32, ptr %4, align 4
  store i32 %8, ptr %7, align 8
  ret void
}

; Function Attrs: mustprogress nounwind uwtable
define linkonce_odr hidden void @_ZN10RelocationC2Ev(ptr noundef nonnull align 8 dereferenceable(20) %0) unnamed_addr #1 comdat align 2 {
  %2 = alloca ptr, align 8
  store ptr %0, ptr %2, align 8
  %3 = load ptr, ptr %2, align 8
  call void @_ZN10RelocationC2EN9relocInfo9relocTypeE(ptr noundef nonnull align 8 dereferenceable(20) %3, i32 noundef 0)
  ret void
}

; Function Attrs: mustprogress nounwind uwtable
define linkonce_odr hidden void @_ZN16RelocationHolder18emplace_relocationI10RelocationJEEEvDpRKT0_(ptr noundef nonnull align 8 dereferenceable(40) %0) #1 comdat align 2 {
  %2 = alloca ptr, align 8
  %3 = alloca ptr, align 8
  store ptr %0, ptr %2, align 8
  %4 = load ptr, ptr %2, align 8
  %5 = getelementptr inbounds %class.RelocationHolder, ptr %4, i32 0, i32 0
  %6 = getelementptr inbounds [40 x i8], ptr %5, i64 0, i64 0
  call void @_ZN10RelocationC2Ev(ptr noundef nonnull align 8 dereferenceable(20) %6)
  store ptr %6, ptr %3, align 8
  ret void
}

; Function Attrs: mustprogress nounwind uwtable
define linkonce_odr hidden void @_ZN16RelocationHolderC2I10RelocationJEEENS_9ConstructIT_EEDpRKT0_(ptr noundef nonnull align 8 dereferenceable(40) %0) unnamed_addr #1 comdat align 2 {
  %2 = alloca ptr, align 8
  store ptr %0, ptr %2, align 8
  %3 = load ptr, ptr %2, align 8
  call void @_ZN16RelocationHolder18emplace_relocationI10RelocationJEEEvDpRKT0_(ptr noundef nonnull align 8 dereferenceable(40) %3)
  ret void
}

; Function Attrs: mustprogress nounwind uwtable
define linkonce_odr hidden void @_ZN16RelocationHolderC2Ev(ptr noundef nonnull align 8 dereferenceable(40) %0) unnamed_addr #1 comdat align 2 {
  %2 = alloca ptr, align 8
  store ptr %0, ptr %2, align 8
  %3 = load ptr, ptr %2, align 8
  call void @_ZN16RelocationHolderC2I10RelocationJEEENS_9ConstructIT_EEDpRKT0_(ptr noundef nonnull align 8 dereferenceable(40) %3)
  ret void
}

; Function Attrs: mustprogress nounwind uwtable
define linkonce_odr hidden void @_ZN7AddressC2E8RegisterS0_NS_11ScaleFactorEi(ptr noundef nonnull align 8 dereferenceable(64) %0, i32 %1, i32 %2, i32 noundef %3, i32 noundef %4) unnamed_addr #1 comdat align 2 {
  %6 = alloca %class.Register, align 4
  %7 = alloca %class.Register, align 4
  %8 = alloca ptr, align 8
  %9 = alloca i32, align 4
  %10 = alloca i32, align 4
  %11 = getelementptr inbounds %class.Register, ptr %6, i32 0, i32 0
  store i32 %1, ptr %11, align 4
  %12 = getelementptr inbounds %class.Register, ptr %7, i32 0, i32 0
  store i32 %2, ptr %12, align 4
  store ptr %0, ptr %8, align 8
  store i32 %3, ptr %9, align 4
  store i32 %4, ptr %10, align 4
  %13 = load ptr, ptr %8, align 8
  %14 = getelementptr inbounds %class.Address, ptr %13, i32 0, i32 0
  call void @llvm.memcpy.p0.p0.i64(ptr align 8 %14, ptr align 4 %6, i64 4, i1 false)
  %15 = getelementptr inbounds %class.Address, ptr %13, i32 0, i32 1
  call void @llvm.memcpy.p0.p0.i64(ptr align 4 %15, ptr align 4 %7, i64 4, i1 false)
  %16 = getelementptr inbounds %class.Address, ptr %13, i32 0, i32 2
  call void @llvm.memcpy.p0.p0.i64(ptr align 8 %16, ptr align 4 @_ZL6xnoreg, i64 4, i1 false)
  %17 = getelementptr inbounds %class.Address, ptr %13, i32 0, i32 3
  %18 = load i32, ptr %9, align 4
  store i32 %18, ptr %17, align 4
  %19 = getelementptr inbounds %class.Address, ptr %13, i32 0, i32 4
  %20 = load i32, ptr %10, align 4
  store i32 %20, ptr %19, align 8
  %21 = getelementptr inbounds %class.Address, ptr %13, i32 0, i32 5
  store i8 0, ptr %21, align 4
  %22 = getelementptr inbounds %class.Address, ptr %13, i32 0, i32 7
  call void @_ZN16RelocationHolderC2Ev(ptr noundef nonnull align 8 dereferenceable(40) %22)
  ret void
}

; Function Attrs: mustprogress nounwind uwtable
define internal void @_ZL8iaddress8Register(ptr dead_on_unwind noalias writable sret(%class.Address) align 8 %0, i32 %1) #1 {
  %3 = alloca ptr, align 8
  %4 = alloca %class.Register, align 4
  %5 = alloca %class.Register, align 4
  %6 = alloca %class.Register, align 4
  store ptr %0, ptr %3, align 8
  %7 = getelementptr inbounds %class.Register, ptr %4, i32 0, i32 0
  store i32 %1, ptr %7, align 4
  call void @llvm.memcpy.p0.p0.i64(ptr align 4 %5, ptr align 4 @_ZL7rlocals, i64 4, i1 false)
  call void @llvm.memcpy.p0.p0.i64(ptr align 4 %6, ptr align 4 %4, i64 4, i1 false)
  %8 = getelementptr inbounds %class.Register, ptr %5, i32 0, i32 0
  %9 = load i32, ptr %8, align 4
  %10 = getelementptr inbounds %class.Register, ptr %6, i32 0, i32 0
  %11 = load i32, ptr %10, align 4
  call void @_ZN7AddressC2E8RegisterS0_NS_11ScaleFactorEi(ptr noundef nonnull align 8 dereferenceable(64) %0, i32 %9, i32 %11, i32 noundef 3, i32 noundef 0)
  ret void
}

; Function Attrs: mustprogress nounwind uwtable
define internal void @_ZL8faddress8Register(ptr dead_on_unwind noalias writable sret(%class.Address) align 8 %0, i32 %1) #1 {
  %3 = alloca ptr, align 8
  %4 = alloca %class.Register, align 4
  %5 = alloca %class.Register, align 4
  store ptr %0, ptr %3, align 8
  %6 = getelementptr inbounds %class.Register, ptr %4, i32 0, i32 0
  store i32 %1, ptr %6, align 4
  call void @llvm.memcpy.p0.p0.i64(ptr align 4 %5, ptr align 4 %4, i64 4, i1 false)
  %7 = getelementptr inbounds %class.Register, ptr %5, i32 0, i32 0
  %8 = load i32, ptr %7, align 4
  call void @_ZL8iaddress8Register(ptr dead_on_unwind writable sret(%class.Address) align 8 %0, i32 %8)
  ret void
}

; Function Attrs: mustprogress nounwind uwtable
define linkonce_odr hidden noundef ptr @_ZN12Disassembler4hookI25InterpreterMacroAssemblerEEPT_PKciS3_(ptr noundef %0, i32 noundef %1, ptr noundef %2) #1 comdat align 2 {
  %4 = alloca ptr, align 8
  %5 = alloca i32, align 4
  %6 = alloca ptr, align 8
  store ptr %0, ptr %4, align 8
  store i32 %1, ptr %5, align 4
  store ptr %2, ptr %6, align 8
  %7 = load i8, ptr @PrintInterpreter, align 1
  %8 = trunc i8 %7 to i1
  br i1 %8, label %9, label %13

9:                                                ; preds = %3
  %10 = load ptr, ptr %4, align 8
  %11 = load i32, ptr %5, align 4
  %12 = load ptr, ptr %6, align 8
  call void @_ZN12Disassembler5_hookEPKciP14MacroAssembler(ptr noundef %10, i32 noundef %11, ptr noundef %12)
  br label %13

13:                                               ; preds = %9, %3
  %14 = load ptr, ptr %6, align 8
  ret ptr %14
}

; Function Attrs: mustprogress nounwind uwtable
define hidden void @_ZN13TemplateTable10wide_floadEv() #1 align 2 {
  %1 = alloca %class.Register, align 4
  %2 = alloca %class.Address, align 8
  %3 = alloca %class.Register, align 4
  call void @_ZN13TemplateTable10transitionE8TosStateS0_(i32 noundef 9, i32 noundef 6)
  call void @llvm.memcpy.p0.p0.i64(ptr align 4 %1, ptr align 4 @_ZL3rbx, i64 4, i1 false)
  %4 = getelementptr inbounds %class.Register, ptr %1, i32 0, i32 0
  %5 = load i32, ptr %4, align 4
  call void @_ZN13TemplateTable17locals_index_wideE8Register(i32 %5)
  %6 = load ptr, ptr @_ZN13TemplateTable5_masmE, align 8
  %7 = call noundef ptr @_ZN12Disassembler4hookI25InterpreterMacroAssemblerEEPT_PKciS3_(ptr noundef @.str, i32 noundef 741, ptr noundef %6)
  call void @llvm.memcpy.p0.p0.i64(ptr align 4 %3, ptr align 4 @_ZL3rbx, i64 4, i1 false)
  %8 = getelementptr inbounds %class.Register, ptr %3, i32 0, i32 0
  %9 = load i32, ptr %8, align 4
  call void @_ZL8faddress8Register(ptr dead_on_unwind writable sret(%class.Address) align 8 %2, i32 %9)
  call void @_ZN14MacroAssembler10load_floatE7Address(ptr noundef nonnull align 8 dereferenceable(40) %7, ptr noundef %2)
  ret void
}